; Function Attrs: mustprogress null_pointer_is_valid sspstrong uwtable
define noundef i32 @_ZN12ProfileModel21importProfilesFromZipE7QStringPiP5QListIS0_E(ptr noundef align 8 dereferenceable_or_null(104) %0, ptr noundef readonly captures(none) %1, ptr noundef captures(address_is_null) %2, ptr noundef %3) local_unnamed_addr #0 align 2 personality ptr @__gxx_personality_v0 {
  %5 = alloca %class.QTemporaryDir, align 8
  %6 = alloca %class.QString, align 8
  %7 = alloca %class.QString, align 8
  %8 = alloca %class.QString, align 8
  call void @llvm.lifetime.start.p0(i64 8, ptr nonnull %5) #26
  call void @_ZN13QTemporaryDirC1Ev(ptr noundef nonnull align 8 dereferenceable_or_null(8) %5)
  %9 = invoke noundef zeroext i1 @_ZNK13QTemporaryDir7isValidEv(ptr noundef nonnull align 8 dereferenceable_or_null(8) %5)
          to label %10 unwind label %39

10:                                               ; preds = %4
  br i1 %9, label %11, label %_ZN7QStringD2Ev.exit19

11:                                               ; preds = %10
  %12 = load ptr, ptr %1, align 8
  store ptr %12, ptr %6, align 8
  %13 = getelementptr inbounds nuw i8, ptr %6, i64 8
  %14 = getelementptr inbounds nuw i8, ptr %1, i64 8
  %15 = load ptr, ptr %14, align 8
  store ptr %15, ptr %13, align 8
  %16 = getelementptr inbounds nuw i8, ptr %6, i64 16
  %17 = getelementptr inbounds nuw i8, ptr %1, i64 16
  %18 = load i64, ptr %17, align 8
  store i64 %18, ptr %16, align 8
  %.not.i.i.i = icmp eq ptr %12, null
  br i1 %.not.i.i.i, label %_ZN7QStringC2ERKS_.exit, label %19

19:                                               ; preds = %11
  %20 = atomicrmw add ptr %12, i32 1 seq_cst, align 4
  br label %_ZN7QStringC2ERKS_.exit

_ZN7QStringC2ERKS_.exit:                          ; preds = %11, %19
  invoke void @_ZNK13QTemporaryDir4pathEv(ptr dead_on_unwind nonnull writable sret(%class.QString) align 8 %7, ptr noundef nonnull align 8 dereferenceable_or_null(8) %5)
          to label %21 unwind label %41

21:                                               ; preds = %_ZN7QStringC2ERKS_.exit
  %22 = invoke noundef zeroext i1 @_ZN18WiresharkZipHelper5unzipE7QStringS0_PFbS0_iEPFS0_S0_E(ptr noundef nonnull %6, ptr noundef nonnull %7, ptr noundef nonnull @_ZN12ProfileModel10acceptFileE7QStringi, ptr noundef nonnull @_ZN12ProfileModel9cleanNameE7QString)
          to label %23 unwind label %43

23:                                               ; preds = %21
  %24 = load ptr, ptr %7, align 8
  %.not.i.i.i11 = icmp eq ptr %24, null
  br i1 %.not.i.i.i11, label %_ZN7QStringD2Ev.exit, label %_ZN17QArrayDataPointerIDsE5derefEv.exit.i.i

_ZN17QArrayDataPointerIDsE5derefEv.exit.i.i:      ; preds = %23
  %25 = atomicrmw sub ptr %24, i32 1 seq_cst, align 4
  %.not.i.i = icmp eq i32 %25, 1
  br i1 %.not.i.i, label %26, label %_ZN7QStringD2Ev.exit

26:                                               ; preds = %_ZN17QArrayDataPointerIDsE5derefEv.exit.i.i
  %27 = load ptr, ptr %7, align 8
  call void @_ZN10QArrayData10deallocateEPS_xx(ptr noundef %27, i64 noundef 2, i64 noundef 8) #26
  br label %_ZN7QStringD2Ev.exit

_ZN7QStringD2Ev.exit:                             ; preds = %23, %_ZN17QArrayDataPointerIDsE5derefEv.exit.i.i, %26
  %28 = load ptr, ptr %6, align 8
  %.not.i.i.i12 = icmp eq ptr %28, null
  br i1 %.not.i.i.i12, label %_ZN7QStringD2Ev.exit15, label %_ZN17QArrayDataPointerIDsE5derefEv.exit.i.i13

_ZN17QArrayDataPointerIDsE5derefEv.exit.i.i13:    ; preds = %_ZN7QStringD2Ev.exit
  %29 = atomicrmw sub ptr %28, i32 1 seq_cst, align 4
  %.not.i.i14 = icmp eq i32 %29, 1
  br i1 %.not.i.i14, label %30, label %_ZN7QStringD2Ev.exit15

30:                                               ; preds = %_ZN17QArrayDataPointerIDsE5derefEv.exit.i.i13
  %31 = load ptr, ptr %6, align 8
  call void @_ZN10QArrayData10deallocateEPS_xx(ptr noundef %31, i64 noundef 2, i64 noundef 8) #26
  br label %_ZN7QStringD2Ev.exit15

_ZN7QStringD2Ev.exit15:                           ; preds = %_ZN7QStringD2Ev.exit, %_ZN17QArrayDataPointerIDsE5derefEv.exit.i.i13, %30
  invoke void @_ZNK13QTemporaryDir4pathEv(ptr dead_on_unwind nonnull writable sret(%class.QString) align 8 %8, ptr noundef nonnull align 8 dereferenceable_or_null(8) %5)
          to label %32 unwind label %39

32:                                               ; preds = %_ZN7QStringD2Ev.exit15
  %33 = invoke noundef i32 @_ZN12ProfileModel21importProfilesFromDirE7QStringPibP5QListIS0_E(ptr noundef align 8 dereferenceable_or_null(104) %0, ptr noundef nonnull %8, ptr noundef %2, i1 noundef zeroext true, ptr noundef %3)
          to label %34 unwind label %53

34:                                               ; preds = %32
  %35 = load ptr, ptr %8, align 8
  %.not.i.i.i16 = icmp eq ptr %35, null
  br i1 %.not.i.i.i16, label %_ZN7QStringD2Ev.exit19, label %_ZN17QArrayDataPointerIDsE5derefEv.exit.i.i17

_ZN17QArrayDataPointerIDsE5derefEv.exit.i.i17:    ; preds = %34
  %36 = atomicrmw sub ptr %35, i32 1 seq_cst, align 4
  %.not.i.i18 = icmp eq i32 %36, 1
  br i1 %.not.i.i18, label %37, label %_ZN7QStringD2Ev.exit19

37:                                               ; preds = %_ZN17QArrayDataPointerIDsE5derefEv.exit.i.i17
  %38 = load ptr, ptr %8, align 8
  call void @_ZN10QArrayData10deallocateEPS_xx(ptr noundef %38, i64 noundef 2, i64 noundef 8) #26
  br label %_ZN7QStringD2Ev.exit19

39:                                               ; preds = %_ZN7QStringD2Ev.exit15, %4
  %40 = landingpad { ptr, i32 }
          cleanup
  br label %_ZN7QStringD2Ev.exit27

41:                                               ; preds = %_ZN7QStringC2ERKS_.exit
  %42 = landingpad { ptr, i32 }
          cleanup
  br label %_ZN7QStringD2Ev.exit23

43:                                               ; preds = %21
  %44 = landingpad { ptr, i32 }
          cleanup
  %45 = load ptr, ptr %7, align 8
  %.not.i.i.i20 = icmp eq ptr %45, null
  br i1 %.not.i.i.i20, label %_ZN7QStringD2Ev.exit23, label %_ZN17QArrayDataPointerIDsE5derefEv.exit.i.i21

_ZN17QArrayDataPointerIDsE5derefEv.exit.i.i21:    ; preds = %43
  %46 = atomicrmw sub ptr %45, i32 1 seq_cst, align 4
  %.not.i.i22 = icmp eq i32 %46, 1
  br i1 %.not.i.i22, label %47, label %_ZN7QStringD2Ev.exit23

47:                                               ; preds = %_ZN17QArrayDataPointerIDsE5derefEv.exit.i.i21
  %48 = load ptr, ptr %7, align 8
  call void @_ZN10QArrayData10deallocateEPS_xx(ptr noundef %48, i64 noundef 2, i64 noundef 8) #26
  br label %_ZN7QStringD2Ev.exit23

_ZN7QStringD2Ev.exit23:                           ; preds = %47, %_ZN17QArrayDataPointerIDsE5derefEv.exit.i.i21, %43, %41
  %.pn = phi { ptr, i32 } [ %42, %41 ], [ %44, %43 ], [ %44, %_ZN17QArrayDataPointerIDsE5derefEv.exit.i.i21 ], [ %44, %47 ]
  %49 = load ptr, ptr %6, align 8
  %.not.i.i.i24 = icmp eq ptr %49, null
  br i1 %.not.i.i.i24, label %_ZN7QStringD2Ev.exit27, label %_ZN17QArrayDataPointerIDsE5derefEv.exit.i.i25

_ZN17QArrayDataPointerIDsE5derefEv.exit.i.i25:    ; preds = %_ZN7QStringD2Ev.exit23
  %50 = atomicrmw sub ptr %49, i32 1 seq_cst, align 4
  %.not.i.i26 = icmp eq i32 %50, 1
  br i1 %.not.i.i26, label %51, label %_ZN7QStringD2Ev.exit27

51:                                               ; preds = %_ZN17QArrayDataPointerIDsE5derefEv.exit.i.i25
  %52 = load ptr, ptr %6, align 8
  call void @_ZN10QArrayData10deallocateEPS_xx(ptr noundef %52, i64 noundef 2, i64 noundef 8) #26
  br label %_ZN7QStringD2Ev.exit27

53:                                               ; preds = %32
  %54 = landingpad { ptr, i32 }
          cleanup
  %55 = load ptr, ptr %8, align 8
  %.not.i.i.i28 = icmp eq ptr %55, null
  br i1 %.not.i.i.i28, label %_ZN7QStringD2Ev.exit27, label %_ZN17QArrayDataPointerIDsE5derefEv.exit.i.i29

_ZN17QArrayDataPointerIDsE5derefEv.exit.i.i29:    ; preds = %53
  %56 = atomicrmw sub ptr %55, i32 1 seq_cst, align 4
  %.not.i.i30 = icmp eq i32 %56, 1
  br i1 %.not.i.i30, label %57, label %_ZN7QStringD2Ev.exit27

57:                                               ; preds = %_ZN17QArrayDataPointerIDsE5derefEv.exit.i.i29
  %58 = load ptr, ptr %8, align 8
  call void @_ZN10QArrayData10deallocateEPS_xx(ptr noundef %58, i64 noundef 2, i64 noundef 8) #26
  br label %_ZN7QStringD2Ev.exit27

_ZN7QStringD2Ev.exit19:                           ; preds = %37, %_ZN17QArrayDataPointerIDsE5derefEv.exit.i.i17, %34, %10
  %.07 = phi i32 [ 0, %10 ], [ %33, %34 ], [ %33, %_ZN17QArrayDataPointerIDsE5derefEv.exit.i.i17 ], [ %33, %37 ]
  call void @_ZN13QTemporaryDirD1Ev(ptr noundef nonnull align 8 dereferenceable_or_null(8) %5) #26
  call void @llvm.lifetime.end.p0(i64 8, ptr nonnull %5) #26
  ret i32 %.07

_ZN7QStringD2Ev.exit27:                           ; preds = %57, %_ZN17QArrayDataPointerIDsE5derefEv.exit.i.i29, %53, %51, %_ZN17QArrayDataPointerIDsE5derefEv.exit.i.i25, %_ZN7QStringD2Ev.exit23, %39
  %.pn9 = phi { ptr, i32 } [ %40, %39 ], [ %.pn, %_ZN7QStringD2Ev.exit23 ], [ %.pn, %_ZN17QArrayDataPointerIDsE5derefEv.exit.i.i25 ], [ %.pn, %51 ], [ %54, %53 ], [ %54, %_ZN17QArrayDataPointerIDsE5derefEv.exit.i.i29 ], [ %54, %57 ]
  call void @_ZN13QTemporaryDirD1Ev(ptr noundef nonnull align 8 dereferenceable_or_null(8) %5) #26
  call void @llvm.lifetime.end.p0(i64 8, ptr nonnull %5) #26
  resume { ptr, i32 } %.pn9
}